target datalayout = "e-m:e-p270:32:32-p271:32:32-p272:64:64-i64:64-i128:128-f80:128-n8:16:32:64-S128"
target triple = "x86_64-pc-linux-gnu"

%struct.AfterTriggersData = type { i32, ptr, %struct.AfterTriggerEventList, ptr, ptr, i32, i32, ptr, i32 }
%struct.AfterTriggerEventList = type { ptr, ptr, ptr }
%struct.ItemPointerData = type { %struct.BlockIdData, i16 }
%struct.BlockIdData = type { i16, i16 }
%struct.AfterTriggerEventData = type { i32, %struct.ItemPointerData, %struct.ItemPointerData, i32, i32 }
%struct.AfterTriggerSharedData = type { i32, i32, i32, i32, i32, ptr, ptr }
%struct.AfterTriggersQueryData = type { %struct.AfterTriggerEventList, ptr, ptr }
%struct.AfterTriggerEventChunk = type { ptr, ptr, ptr, ptr }

@afterTriggers = internal global %struct.AfterTriggersData zeroinitializer, align 8

; Function Attrs: nounwind uwtable
define dso_local zeroext i1 @AfterTriggerPendingOnRel(i32 noundef %0) #0 {
  %2 = alloca i1, align 1
  %3 = alloca i32, align 4
  %4 = alloca ptr, align 8
  %5 = alloca ptr, align 8
  %6 = alloca i32, align 4
  %7 = alloca ptr, align 8
  %8 = alloca i32, align 4
  %9 = alloca ptr, align 8
  store i32 %0, ptr %3, align 4
  call void @llvm.lifetime.start.p0(i64 8, ptr %4) #12
  call void @llvm.lifetime.start.p0(i64 8, ptr %5) #12
  call void @llvm.lifetime.start.p0(i64 4, ptr %6) #12
  %10 = load ptr, ptr getelementptr inbounds nuw (%struct.AfterTriggersData, ptr @afterTriggers, i32 0, i32 2), align 8
  store ptr %10, ptr %5, align 8
  br label %11

11:                                               ; preds = %76, %1
  %12 = load ptr, ptr %5, align 8
  %13 = icmp ne ptr %12, null
  br i1 %13, label %14, label %80

14:                                               ; preds = %11
  %15 = load ptr, ptr %5, align 8
  %16 = getelementptr inbounds nuw i8, ptr %15, i64 32
  store ptr %16, ptr %4, align 8
  br label %17

17:                                               ; preds = %72, %14
  %18 = load ptr, ptr %4, align 8
  %19 = load ptr, ptr %5, align 8
  %20 = getelementptr inbounds nuw %struct.AfterTriggerEventChunk, ptr %19, i32 0, i32 1
  %21 = load ptr, ptr %20, align 8
  %22 = icmp ult ptr %18, %21
  br i1 %22, label %23, label %75

23:                                               ; preds = %17
  call void @llvm.lifetime.start.p0(i64 8, ptr %7) #12
  %24 = load ptr, ptr %4, align 8
  %25 = load ptr, ptr %4, align 8
  %26 = getelementptr inbounds nuw %struct.AfterTriggerEventData, ptr %25, i32 0, i32 0
  %27 = load i32, ptr %26, align 4
  %28 = and i32 %27, 134217727
  %29 = zext i32 %28 to i64
  %30 = getelementptr inbounds nuw i8, ptr %24, i64 %29
  store ptr %30, ptr %7, align 8
  %31 = load ptr, ptr %4, align 8
  %32 = getelementptr inbounds nuw %struct.AfterTriggerEventData, ptr %31, i32 0, i32 0
  %33 = load i32, ptr %32, align 4
  %34 = and i32 %33, -2147483648
  %35 = icmp ne i32 %34, 0
  br i1 %35, label %36, label %37

36:                                               ; preds = %23
  store i32 7, ptr %8, align 4
  br label %45

37:                                               ; preds = %23
  %38 = load ptr, ptr %7, align 8
  %39 = getelementptr inbounds nuw %struct.AfterTriggerSharedData, ptr %38, i32 0, i32 2
  %40 = load i32, ptr %39, align 8
  %41 = load i32, ptr %3, align 4
  %42 = icmp eq i32 %40, %41
  br i1 %42, label %43, label %44

43:                                               ; preds = %37
  store i1 true, ptr %2, align 1
  store i32 1, ptr %8, align 4
  br label %45

44:                                               ; preds = %37
  store i32 0, ptr %8, align 4
  br label %45

45:                                               ; preds = %44, %43, %36
  call void @llvm.lifetime.end.p0(i64 8, ptr %7) #12
  %46 = load i32, ptr %8, align 4
  switch i32 %46, label %173 [
    i32 0, label %47
    i32 7, label %48
  ]

47:                                               ; preds = %45
  br label %48

48:                                               ; preds = %47, %45
  %49 = load ptr, ptr %4, align 8
  %50 = load ptr, ptr %4, align 8
  %51 = getelementptr inbounds nuw %struct.AfterTriggerEventData, ptr %50, i32 0, i32 0
  %52 = load i32, ptr %51, align 4
  %53 = and i32 %52, 939524096
  %54 = icmp eq i32 %53, 134217728
  br i1 %54, label %55, label %56

55:                                               ; preds = %48
  br label %72

56:                                               ; preds = %48
  %57 = load ptr, ptr %4, align 8
  %58 = getelementptr inbounds nuw %struct.AfterTriggerEventData, ptr %57, i32 0, i32 0
  %59 = load i32, ptr %58, align 4
  %60 = and i32 %59, 939524096
  %61 = icmp eq i32 %60, 805306368
  br i1 %61, label %62, label %63

62:                                               ; preds = %56
  br label %70

63:                                               ; preds = %56
  %64 = load ptr, ptr %4, align 8
  %65 = getelementptr inbounds nuw %struct.AfterTriggerEventData, ptr %64, i32 0, i32 0
  %66 = load i32, ptr %65, align 4
  %67 = and i32 %66, 939524096
  %68 = icmp eq i32 %67, 268435456
  %69 = select i1 %68, i64 12, i64 4
  br label %70

70:                                               ; preds = %63, %62
  %71 = phi i64 [ 16, %62 ], [ %69, %63 ]
  br label %72

72:                                               ; preds = %70, %55
  %73 = phi i64 [ 24, %55 ], [ %71, %70 ]
  %74 = getelementptr inbounds nuw i8, ptr %49, i64 %73
  store ptr %74, ptr %4, align 8
  br label %17, !llvm.loop !68

75:                                               ; preds = %17
  br label %76

76:                                               ; preds = %75
  %77 = load ptr, ptr %5, align 8
  %78 = getelementptr inbounds nuw %struct.AfterTriggerEventChunk, ptr %77, i32 0, i32 0
  %79 = load ptr, ptr %78, align 8
  store ptr %79, ptr %5, align 8
  br label %11, !llvm.loop !69

80:                                               ; preds = %11
  store i32 0, ptr %6, align 4
  br label %81

81:                                               ; preds = %169, %80
  %82 = load i32, ptr %6, align 4
  %83 = load i32, ptr getelementptr inbounds nuw (%struct.AfterTriggersData, ptr @afterTriggers, i32 0, i32 5), align 8
  %84 = icmp sle i32 %82, %83
  br i1 %84, label %85, label %89

85:                                               ; preds = %81
  %86 = load i32, ptr %6, align 4
  %87 = load i32, ptr getelementptr inbounds nuw (%struct.AfterTriggersData, ptr @afterTriggers, i32 0, i32 6), align 4
  %88 = icmp slt i32 %86, %87
  br label %89

89:                                               ; preds = %85, %81
  %90 = phi i1 [ false, %81 ], [ %88, %85 ]
  br i1 %90, label %91, label %172

91:                                               ; preds = %89
  %92 = load ptr, ptr getelementptr inbounds nuw (%struct.AfterTriggersData, ptr @afterTriggers, i32 0, i32 4), align 8
  %93 = load i32, ptr %6, align 4
  %94 = sext i32 %93 to i64
  %95 = getelementptr inbounds %struct.AfterTriggersQueryData, ptr %92, i64 %94
  %96 = getelementptr inbounds nuw %struct.AfterTriggersQueryData, ptr %95, i32 0, i32 0
  %97 = getelementptr inbounds nuw %struct.AfterTriggerEventList, ptr %96, i32 0, i32 0
  %98 = load ptr, ptr %97, align 8
  store ptr %98, ptr %5, align 8
  br label %99

99:                                               ; preds = %164, %91
  %100 = load ptr, ptr %5, align 8
  %101 = icmp ne ptr %100, null
  br i1 %101, label %102, label %168

102:                                              ; preds = %99
  %103 = load ptr, ptr %5, align 8
  %104 = getelementptr inbounds nuw i8, ptr %103, i64 32
  store ptr %104, ptr %4, align 8
  br label %105

105:                                              ; preds = %160, %102
  %106 = load ptr, ptr %4, align 8
  %107 = load ptr, ptr %5, align 8
  %108 = getelementptr inbounds nuw %struct.AfterTriggerEventChunk, ptr %107, i32 0, i32 1
  %109 = load ptr, ptr %108, align 8
  %110 = icmp ult ptr %106, %109
  br i1 %110, label %111, label %163

111:                                              ; preds = %105
  call void @llvm.lifetime.start.p0(i64 8, ptr %9) #12
  %112 = load ptr, ptr %4, align 8
  %113 = load ptr, ptr %4, align 8
  %114 = getelementptr inbounds nuw %struct.AfterTriggerEventData, ptr %113, i32 0, i32 0
  %115 = load i32, ptr %114, align 4
  %116 = and i32 %115, 134217727
  %117 = zext i32 %116 to i64
  %118 = getelementptr inbounds nuw i8, ptr %112, i64 %117
  store ptr %118, ptr %9, align 8
  %119 = load ptr, ptr %4, align 8
  %120 = getelementptr inbounds nuw %struct.AfterTriggerEventData, ptr %119, i32 0, i32 0
  %121 = load i32, ptr %120, align 4
  %122 = and i32 %121, -2147483648
  %123 = icmp ne i32 %122, 0
  br i1 %123, label %124, label %125

124:                                              ; preds = %111
  store i32 16, ptr %8, align 4
  br label %133

125:                                              ; preds = %111
  %126 = load ptr, ptr %9, align 8
  %127 = getelementptr inbounds nuw %struct.AfterTriggerSharedData, ptr %126, i32 0, i32 2
  %128 = load i32, ptr %127, align 8
  %129 = load i32, ptr %3, align 4
  %130 = icmp eq i32 %128, %129
  br i1 %130, label %131, label %132

131:                                              ; preds = %125
  store i1 true, ptr %2, align 1
  store i32 1, ptr %8, align 4
  br label %133

132:                                              ; preds = %125
  store i32 0, ptr %8, align 4
  br label %133

133:                                              ; preds = %132, %131, %124
  call void @llvm.lifetime.end.p0(i64 8, ptr %9) #12
  %134 = load i32, ptr %8, align 4
  switch i32 %134, label %173 [
    i32 0, label %135
    i32 16, label %136
  ]

135:                                              ; preds = %133
  br label %136

136:                                              ; preds = %135, %133
  %137 = load ptr, ptr %4, align 8
  %138 = load ptr, ptr %4, align 8
  %139 = getelementptr inbounds nuw %struct.AfterTriggerEventData, ptr %138, i32 0, i32 0
  %140 = load i32, ptr %139, align 4
  %141 = and i32 %140, 939524096
  %142 = icmp eq i32 %141, 134217728
  br i1 %142, label %143, label %144

143:                                              ; preds = %136
  br label %160

144:                                              ; preds = %136
  %145 = load ptr, ptr %4, align 8
  %146 = getelementptr inbounds nuw %struct.AfterTriggerEventData, ptr %145, i32 0, i32 0
  %147 = load i32, ptr %146, align 4
  %148 = and i32 %147, 939524096
  %149 = icmp eq i32 %148, 805306368
  br i1 %149, label %150, label %151

150:                                              ; preds = %144
  br label %158

151:                                              ; preds = %144
  %152 = load ptr, ptr %4, align 8
  %153 = getelementptr inbounds nuw %struct.AfterTriggerEventData, ptr %152, i32 0, i32 0
  %154 = load i32, ptr %153, align 4
  %155 = and i32 %154, 939524096
  %156 = icmp eq i32 %155, 268435456
  %157 = select i1 %156, i64 12, i64 4
  br label %158

158:                                              ; preds = %151, %150
  %159 = phi i64 [ 16, %150 ], [ %157, %151 ]
  br label %160

160:                                              ; preds = %158, %143
  %161 = phi i64 [ 24, %143 ], [ %159, %158 ]
  %162 = getelementptr inbounds nuw i8, ptr %137, i64 %161
  store ptr %162, ptr %4, align 8
  br label %105, !llvm.loop !70

163:                                              ; preds = %105
  br label %164

164:                                              ; preds = %163
  %165 = load ptr, ptr %5, align 8
  %166 = getelementptr inbounds nuw %struct.AfterTriggerEventChunk, ptr %165, i32 0, i32 0
  %167 = load ptr, ptr %166, align 8
  store ptr %167, ptr %5, align 8
  br label %99, !llvm.loop !71

168:                                              ; preds = %99
  br label %169

169:                                              ; preds = %168
  %170 = load i32, ptr %6, align 4
  %171 = add i32 %170, 1
  store i32 %171, ptr %6, align 4
  br label %81, !llvm.loop !72

172:                                              ; preds = %89
  store i1 false, ptr %2, align 1
  store i32 1, ptr %8, align 4
  br label %173

173:                                              ; preds = %172, %133, %45
  call void @llvm.lifetime.end.p0(i64 4, ptr %6) #12
  call void @llvm.lifetime.end.p0(i64 8, ptr %5) #12
  call void @llvm.lifetime.end.p0(i64 8, ptr %4) #12
  %174 = load i1, ptr %2, align 1
  ret i1 %174
}