; Function Attrs: nofree norecurse nosync nounwind memory(read, inaccessiblemem: none) uwtable
define dso_local noundef zeroext i1 @AfterTriggerPendingOnRel(i32 noundef %0) local_unnamed_addr #8 {
  %.03958 = load ptr, ptr getelementptr inbounds nuw (i8, ptr @afterTriggers, i64 16), align 8
  %.not59 = icmp eq ptr %.03958, null
  br i1 %.not59, label %.preheader, label %.lr.ph61

.loopexit55:                                      ; preds = %27, %.lr.ph61
  %.039 = load ptr, ptr %.03960, align 8
  %.not = icmp eq ptr %.039, null
  br i1 %.not, label %.preheader, label %.lr.ph61, !llvm.loop !59

.preheader:                                       ; preds = %.loopexit55, %1
  %2 = load i32, ptr getelementptr inbounds nuw (i8, ptr @afterTriggers, i64 56), align 8
  %3 = load i32, ptr getelementptr inbounds nuw (i8, ptr @afterTriggers, i64 60), align 4
  %4 = icmp sgt i32 %2, -1
  %5 = icmp sgt i32 %3, 0
  %6 = select i1 %4, i1 %5, i1 false
  br i1 %6, label %.lr.ph69, label %.loopexit53

.lr.ph69:                                         ; preds = %.preheader
  %7 = load ptr, ptr getelementptr inbounds nuw (i8, ptr @afterTriggers, i64 48), align 8
  %8 = zext nneg i32 %3 to i64
  %9 = zext nneg i32 %2 to i64
  br label %31

.lr.ph61:                                         ; preds = %1, %.loopexit55
  %.03960 = phi ptr [ %.039, %.loopexit55 ], [ %.03958, %1 ]
  %10 = getelementptr inbounds nuw i8, ptr %.03960, i64 32
  %11 = getelementptr inbounds nuw i8, ptr %.03960, i64 8
  %12 = load ptr, ptr %11, align 8
  %13 = icmp ult ptr %10, %12
  br i1 %13, label %.lr.ph, label %.loopexit55

.lr.ph:                                           ; preds = %.lr.ph61, %27
  %.03657 = phi ptr [ %29, %27 ], [ %10, %.lr.ph61 ]
  %14 = load i32, ptr %.03657, align 4
  %.not45 = icmp sgt i32 %14, -1
  br i1 %.not45, label %15, label %22

15:                                               ; preds = %.lr.ph
  %16 = and i32 %14, 134217727
  %17 = zext nneg i32 %16 to i64
  %18 = getelementptr inbounds nuw i8, ptr %.03657, i64 %17
  %19 = getelementptr inbounds nuw i8, ptr %18, i64 8
  %20 = load i32, ptr %19, align 8
  %21 = icmp eq i32 %20, %0
  br i1 %21, label %.loopexit53, label %22

22:                                               ; preds = %.lr.ph, %15
  %23 = and i32 %14, 939524096
  switch i32 %23, label %24 [
    i32 134217728, label %27
    i32 805306368, label %.fold.split
  ]

24:                                               ; preds = %22
  %25 = icmp eq i32 %23, 268435456
  %26 = select i1 %25, i64 12, i64 4
  br label %27

.fold.split:                                      ; preds = %22
  br label %27

27:                                               ; preds = %22, %.fold.split, %24
  %28 = phi i64 [ 24, %22 ], [ %26, %24 ], [ 16, %.fold.split ]
  %29 = getelementptr inbounds nuw i8, ptr %.03657, i64 %28
  %30 = icmp ult ptr %29, %12
  br i1 %30, label %.lr.ph, label %.loopexit55, !llvm.loop !60

31:                                               ; preds = %.lr.ph69, %._crit_edge
  %indvars.iv = phi i64 [ 0, %.lr.ph69 ], [ %indvars.iv.next, %._crit_edge ]
  %32 = getelementptr inbounds nuw %struct.AfterTriggersQueryData, ptr %7, i64 %indvars.iv
  %.14064 = load ptr, ptr %32, align 8
  %.not4365 = icmp eq ptr %.14064, null
  br i1 %.not4365, label %._crit_edge, label %.lr.ph67

.loopexit:                                        ; preds = %50, %.lr.ph67
  %.140 = load ptr, ptr %.14066, align 8
  %.not43 = icmp eq ptr %.140, null
  br i1 %.not43, label %._crit_edge, label %.lr.ph67, !llvm.loop !61

.lr.ph67:                                         ; preds = %31, %.loopexit
  %.14066 = phi ptr [ %.140, %.loopexit ], [ %.14064, %31 ]
  %33 = getelementptr inbounds nuw i8, ptr %.14066, i64 32
  %34 = getelementptr inbounds nuw i8, ptr %.14066, i64 8
  %35 = load ptr, ptr %34, align 8
  %36 = icmp ult ptr %33, %35
  br i1 %36, label %.lr.ph63, label %.loopexit

.lr.ph63:                                         ; preds = %.lr.ph67, %50
  %.13762 = phi ptr [ %52, %50 ], [ %33, %.lr.ph67 ]
  %37 = load i32, ptr %.13762, align 4
  %.not44 = icmp sgt i32 %37, -1
  br i1 %.not44, label %38, label %45

38:                                               ; preds = %.lr.ph63
  %39 = and i32 %37, 134217727
  %40 = zext nneg i32 %39 to i64
  %41 = getelementptr inbounds nuw i8, ptr %.13762, i64 %40
  %42 = getelementptr inbounds nuw i8, ptr %41, i64 8
  %43 = load i32, ptr %42, align 8
  %44 = icmp eq i32 %43, %0
  br i1 %44, label %.loopexit53, label %45

45:                                               ; preds = %.lr.ph63, %38
  %46 = and i32 %37, 939524096
  switch i32 %46, label %47 [
    i32 134217728, label %50
    i32 805306368, label %.fold.split47
  ]

47:                                               ; preds = %45
  %48 = icmp eq i32 %46, 268435456
  %49 = select i1 %48, i64 12, i64 4
  br label %50

.fold.split47:                                    ; preds = %45
  br label %50

50:                                               ; preds = %45, %.fold.split47, %47
  %51 = phi i64 [ 24, %45 ], [ %49, %47 ], [ 16, %.fold.split47 ]
  %52 = getelementptr inbounds nuw i8, ptr %.13762, i64 %51
  %53 = icmp ult ptr %52, %35
  br i1 %53, label %.lr.ph63, label %.loopexit, !llvm.loop !62

._crit_edge:                                      ; preds = %.loopexit, %31
  %indvars.iv.next = add nuw nsw i64 %indvars.iv, 1
  %54 = icmp samesign ult i64 %indvars.iv, %9
  %55 = icmp samesign ult i64 %indvars.iv.next, %8
  %56 = select i1 %54, i1 %55, i1 false
  br i1 %56, label %31, label %.loopexit53, !llvm.loop !63

.loopexit53:                                      ; preds = %15, %._crit_edge, %38, %.preheader
  %.3 = phi i1 [ false, %.preheader ], [ true, %38 ], [ false, %._crit_edge ], [ true, %15 ]
  ret i1 %.3
}